target datalayout = "e-m:e-p270:32:32-p271:32:32-p272:64:64-i64:64-i128:128-f80:128-n8:16:32:64-S128"
target triple = "x86_64-pc-linux-gnu"

%struct.LogicalRepCtxStruct = type { i32, i32, i64, [0 x %struct.LogicalRepWorker] }
%struct.LogicalRepWorker = type { i32, i64, i8, i16, ptr, i32, i32, i32, i32, i8, i64, i8, ptr, i32, i8, i64, i64, i64, i64, i64 }

@max_logical_replication_workers = dso_local global i32 4, align 4
@LogicalRepCtx = internal global ptr null, align 8

; Function Attrs: nounwind uwtable
define dso_local ptr @logicalrep_worker_find(i32 noundef %0, i32 noundef %1, i1 noundef zeroext %2) #0 {
  %4 = alloca i32, align 4
  %5 = alloca i32, align 4
  %6 = alloca i8, align 1
  %7 = alloca i32, align 4
  %8 = alloca ptr, align 8
  %9 = alloca ptr, align 8
  %10 = alloca i32, align 4
  store i32 %0, ptr %4, align 4
  store i32 %1, ptr %5, align 4
  %11 = zext i1 %2 to i8
  store i8 %11, ptr %6, align 1
  call void @llvm.lifetime.start.p0(i64 4, ptr %7) #9
  call void @llvm.lifetime.start.p0(i64 8, ptr %8) #9
  store ptr null, ptr %8, align 8
  store i32 0, ptr %7, align 4
  br label %12

12:                                               ; preds = %63, %3
  %13 = load i32, ptr %7, align 4
  %14 = load i32, ptr @max_logical_replication_workers, align 4
  %15 = icmp slt i32 %13, %14
  br i1 %15, label %16, label %66

16:                                               ; preds = %12
  call void @llvm.lifetime.start.p0(i64 8, ptr %9) #9
  %17 = load ptr, ptr @LogicalRepCtx, align 8
  %18 = getelementptr inbounds nuw %struct.LogicalRepCtxStruct, ptr %17, i32 0, i32 3
  %19 = load i32, ptr %7, align 4
  %20 = sext i32 %19 to i64
  %21 = getelementptr inbounds [0 x %struct.LogicalRepWorker], ptr %18, i64 0, i64 %20
  store ptr %21, ptr %9, align 8
  %22 = load ptr, ptr %9, align 8
  %23 = getelementptr inbounds nuw %struct.LogicalRepWorker, ptr %22, i32 0, i32 2
  %24 = load i8, ptr %23, align 8, !range !4, !noundef !5
  %25 = trunc i8 %24 to i1
  br i1 %25, label %26, label %32

26:                                               ; preds = %16
  %27 = load ptr, ptr %9, align 8
  %28 = getelementptr inbounds nuw %struct.LogicalRepWorker, ptr %27, i32 0, i32 0
  %29 = load i32, ptr %28, align 8
  %30 = icmp eq i32 %29, 3
  br i1 %30, label %31, label %32

31:                                               ; preds = %26
  store i32 4, ptr %10, align 4
  br label %60

32:                                               ; preds = %26, %16
  %33 = load ptr, ptr %9, align 8
  %34 = getelementptr inbounds nuw %struct.LogicalRepWorker, ptr %33, i32 0, i32 2
  %35 = load i8, ptr %34, align 8, !range !4, !noundef !5
  %36 = trunc i8 %35 to i1
  br i1 %36, label %37, label %59

37:                                               ; preds = %32
  %38 = load ptr, ptr %9, align 8
  %39 = getelementptr inbounds nuw %struct.LogicalRepWorker, ptr %38, i32 0, i32 7
  %40 = load i32, ptr %39, align 8
  %41 = load i32, ptr %4, align 4
  %42 = icmp eq i32 %40, %41
  br i1 %42, label %43, label %59

43:                                               ; preds = %37
  %44 = load ptr, ptr %9, align 8
  %45 = getelementptr inbounds nuw %struct.LogicalRepWorker, ptr %44, i32 0, i32 8
  %46 = load i32, ptr %45, align 4
  %47 = load i32, ptr %5, align 4
  %48 = icmp eq i32 %46, %47
  br i1 %48, label %49, label %59

49:                                               ; preds = %43
  %50 = load i8, ptr %6, align 1, !range !4, !noundef !5
  %51 = trunc i8 %50 to i1
  br i1 %51, label %52, label %57

52:                                               ; preds = %49
  %53 = load ptr, ptr %9, align 8
  %54 = getelementptr inbounds nuw %struct.LogicalRepWorker, ptr %53, i32 0, i32 4
  %55 = load ptr, ptr %54, align 8
  %56 = icmp ne ptr %55, null
  br i1 %56, label %57, label %59

57:                                               ; preds = %52, %49
  %58 = load ptr, ptr %9, align 8
  store ptr %58, ptr %8, align 8
  store i32 2, ptr %10, align 4
  br label %60

59:                                               ; preds = %52, %43, %37, %32
  store i32 0, ptr %10, align 4
  br label %60

60:                                               ; preds = %59, %57, %31
  call void @llvm.lifetime.end.p0(i64 8, ptr %9) #9
  %61 = load i32, ptr %10, align 4
  switch i32 %61, label %68 [
    i32 0, label %62
    i32 4, label %63
    i32 2, label %66
  ]

62:                                               ; preds = %60
  br label %63

63:                                               ; preds = %62, %60
  %64 = load i32, ptr %7, align 4
  %65 = add i32 %64, 1
  store i32 %65, ptr %7, align 4
  br label %12, !llvm.loop !6

66:                                               ; preds = %60, %12
  %67 = load ptr, ptr %8, align 8
  store i32 1, ptr %10, align 4
  call void @llvm.lifetime.end.p0(i64 8, ptr %8) #9
  call void @llvm.lifetime.end.p0(i64 4, ptr %7) #9
  ret ptr %67

68:                                               ; preds = %60
  unreachable
}