; Function Attrs: nofree norecurse nosync nounwind memory(read, inaccessiblemem: none) uwtable
define dso_local ptr @logicalrep_worker_find(i32 noundef %0, i32 noundef %1, i1 noundef zeroext %2) local_unnamed_addr #0 {
  %4 = load i32, ptr @max_logical_replication_workers, align 4
  %5 = icmp sgt i32 %4, 0
  br i1 %5, label %.lr.ph, label %.thread16

.lr.ph:                                           ; preds = %3
  %6 = load ptr, ptr @LogicalRepCtx, align 8
  %7 = getelementptr inbounds nuw i8, ptr %6, i64 16
  %wide.trip.count34 = zext nneg i32 %4 to i64
  br i1 %2, label %.lr.ph.split.us, label %.lr.ph.split

.lr.ph.split.us:                                  ; preds = %.lr.ph, %26
  %indvars.iv31 = phi i64 [ %indvars.iv.next32, %26 ], [ 0, %.lr.ph ]
  %8 = getelementptr inbounds nuw [0 x %struct.LogicalRepWorker], ptr %7, i64 0, i64 %indvars.iv31
  %9 = getelementptr inbounds nuw i8, ptr %8, i64 16
  %10 = load i8, ptr %9, align 8, !range !4, !noundef !5
  %11 = trunc nuw i8 %10 to i1
  br i1 %11, label %12, label %26

12:                                               ; preds = %.lr.ph.split.us
  %13 = load i32, ptr %8, align 8
  %14 = icmp eq i32 %13, 3
  br i1 %14, label %26, label %15

15:                                               ; preds = %12
  %16 = getelementptr inbounds nuw i8, ptr %8, i64 40
  %17 = load i32, ptr %16, align 8
  %18 = icmp eq i32 %17, %0
  br i1 %18, label %19, label %26

19:                                               ; preds = %15
  %20 = getelementptr inbounds nuw i8, ptr %8, i64 44
  %21 = load i32, ptr %20, align 4
  %22 = icmp eq i32 %21, %1
  br i1 %22, label %23, label %26

23:                                               ; preds = %19
  %24 = getelementptr inbounds nuw i8, ptr %8, i64 24
  %25 = load ptr, ptr %24, align 8
  %.not.us = icmp eq ptr %25, null
  br i1 %.not.us, label %26, label %.thread16

26:                                               ; preds = %23, %19, %15, %12, %.lr.ph.split.us
  %indvars.iv.next32 = add nuw nsw i64 %indvars.iv31, 1
  %exitcond35.not = icmp eq i64 %indvars.iv.next32, %wide.trip.count34
  br i1 %exitcond35.not, label %.thread16, label %.lr.ph.split.us, !llvm.loop !6

.lr.ph.split:                                     ; preds = %.lr.ph, %42
  %indvars.iv = phi i64 [ %indvars.iv.next, %42 ], [ 0, %.lr.ph ]
  %27 = getelementptr inbounds nuw [0 x %struct.LogicalRepWorker], ptr %7, i64 0, i64 %indvars.iv
  %28 = getelementptr inbounds nuw i8, ptr %27, i64 16
  %29 = load i8, ptr %28, align 8, !range !4, !noundef !5
  %30 = trunc nuw i8 %29 to i1
  br i1 %30, label %31, label %42

31:                                               ; preds = %.lr.ph.split
  %32 = load i32, ptr %27, align 8
  %33 = icmp eq i32 %32, 3
  br i1 %33, label %42, label %34

34:                                               ; preds = %31
  %35 = getelementptr inbounds nuw i8, ptr %27, i64 40
  %36 = load i32, ptr %35, align 8
  %37 = icmp eq i32 %36, %0
  br i1 %37, label %38, label %42

38:                                               ; preds = %34
  %39 = getelementptr inbounds nuw i8, ptr %27, i64 44
  %40 = load i32, ptr %39, align 4
  %41 = icmp eq i32 %40, %1
  br i1 %41, label %.thread16, label %42

42:                                               ; preds = %34, %38, %.lr.ph.split, %31
  %indvars.iv.next = add nuw nsw i64 %indvars.iv, 1
  %exitcond.not = icmp eq i64 %indvars.iv.next, %wide.trip.count34
  br i1 %exitcond.not, label %.thread16, label %.lr.ph.split, !llvm.loop !6

.thread16:                                        ; preds = %42, %38, %26, %23, %3
  %.1 = phi ptr [ null, %3 ], [ %8, %23 ], [ null, %26 ], [ %27, %38 ], [ null, %42 ]
  ret ptr %.1
}